ARM GAS  /tmp/ccLVcmbR.s 			page 1


   1              		.cpu cortex-m7
   2              		.arch armv7e-m
   3              		.fpu fpv5-d16
   4              		.eabi_attribute 28, 1
   5              		.eabi_attribute 20, 1
   6              		.eabi_attribute 21, 1
   7              		.eabi_attribute 23, 3
   8              		.eabi_attribute 24, 1
   9              		.eabi_attribute 25, 1
  10              		.eabi_attribute 26, 1
  11              		.eabi_attribute 30, 1
  12              		.eabi_attribute 34, 1
  13              		.eabi_attribute 18, 4
  14              		.file	"usart.c"
  15              		.text
  16              	.Ltext0:
  17              		.cfi_sections	.debug_frame
  18              		.file 1 "Core/Src/usart.c"
  19              		.section	.text.MX_USART1_UART_Init,"ax",%progbits
  20              		.align	1
  21              		.global	MX_USART1_UART_Init
  22              		.syntax unified
  23              		.thumb
  24              		.thumb_func
  26              	MX_USART1_UART_Init:
  27              	.LFB147:
   1:Core/Src/usart.c **** /* USER CODE BEGIN Header */
   2:Core/Src/usart.c **** /**
   3:Core/Src/usart.c ****   ******************************************************************************
   4:Core/Src/usart.c ****   * @file    usart.c
   5:Core/Src/usart.c ****   * @brief   This file provides code for the configuration
   6:Core/Src/usart.c ****   *          of the USART instances.
   7:Core/Src/usart.c ****   ******************************************************************************
   8:Core/Src/usart.c ****   * @attention
   9:Core/Src/usart.c ****   *
  10:Core/Src/usart.c ****   * Copyright (c) 2025 STMicroelectronics.
  11:Core/Src/usart.c ****   * All rights reserved.
  12:Core/Src/usart.c ****   *
  13:Core/Src/usart.c ****   * This software is licensed under terms that can be found in the LICENSE file
  14:Core/Src/usart.c ****   * in the root directory of this software component.
  15:Core/Src/usart.c ****   * If no LICENSE file comes with this software, it is provided AS-IS.
  16:Core/Src/usart.c ****   *
  17:Core/Src/usart.c ****   ******************************************************************************
  18:Core/Src/usart.c ****   */
  19:Core/Src/usart.c **** /* USER CODE END Header */
  20:Core/Src/usart.c **** /* Includes ------------------------------------------------------------------*/
  21:Core/Src/usart.c **** #include "usart.h"
  22:Core/Src/usart.c **** 
  23:Core/Src/usart.c **** /* USER CODE BEGIN 0 */
  24:Core/Src/usart.c **** #include <stdio.h>
  25:Core/Src/usart.c **** #include <string.h>
  26:Core/Src/usart.c **** #include <stdarg.h>
  27:Core/Src/usart.c **** 
  28:Core/Src/usart.c **** /* USER CODE END 0 */
  29:Core/Src/usart.c **** 
  30:Core/Src/usart.c **** UART_HandleTypeDef huart1;
  31:Core/Src/usart.c **** 
ARM GAS  /tmp/ccLVcmbR.s 			page 2


  32:Core/Src/usart.c **** /* USART1 init function */
  33:Core/Src/usart.c **** 
  34:Core/Src/usart.c **** void MX_USART1_UART_Init(void)
  35:Core/Src/usart.c **** {
  28              		.loc 1 35 1 view -0
  29              		.cfi_startproc
  30              		@ args = 0, pretend = 0, frame = 0
  31              		@ frame_needed = 0, uses_anonymous_args = 0
  32 0000 08B5     		push	{r3, lr}
  33              	.LCFI0:
  34              		.cfi_def_cfa_offset 8
  35              		.cfi_offset 3, -8
  36              		.cfi_offset 14, -4
  36:Core/Src/usart.c **** 
  37:Core/Src/usart.c ****   /* USER CODE BEGIN USART1_Init 0 */
  38:Core/Src/usart.c **** 
  39:Core/Src/usart.c ****   /* USER CODE END USART1_Init 0 */
  40:Core/Src/usart.c **** 
  41:Core/Src/usart.c ****   /* USER CODE BEGIN USART1_Init 1 */
  42:Core/Src/usart.c **** 
  43:Core/Src/usart.c ****   /* USER CODE END USART1_Init 1 */
  44:Core/Src/usart.c ****   huart1.Instance = USART1;
  37              		.loc 1 44 3 view .LVU1
  38              		.loc 1 44 19 is_stmt 0 view .LVU2
  39 0002 1748     		ldr	r0, .L11
  40 0004 174B     		ldr	r3, .L11+4
  41 0006 0360     		str	r3, [r0]
  45:Core/Src/usart.c ****   huart1.Init.BaudRate = 115200;
  42              		.loc 1 45 3 is_stmt 1 view .LVU3
  43              		.loc 1 45 24 is_stmt 0 view .LVU4
  44 0008 4FF4E133 		mov	r3, #115200
  45 000c 4360     		str	r3, [r0, #4]
  46:Core/Src/usart.c ****   huart1.Init.WordLength = UART_WORDLENGTH_8B;
  46              		.loc 1 46 3 is_stmt 1 view .LVU5
  47              		.loc 1 46 26 is_stmt 0 view .LVU6
  48 000e 0023     		movs	r3, #0
  49 0010 8360     		str	r3, [r0, #8]
  47:Core/Src/usart.c ****   huart1.Init.StopBits = UART_STOPBITS_1;
  50              		.loc 1 47 3 is_stmt 1 view .LVU7
  51              		.loc 1 47 24 is_stmt 0 view .LVU8
  52 0012 C360     		str	r3, [r0, #12]
  48:Core/Src/usart.c ****   huart1.Init.Parity = UART_PARITY_NONE;
  53              		.loc 1 48 3 is_stmt 1 view .LVU9
  54              		.loc 1 48 22 is_stmt 0 view .LVU10
  55 0014 0361     		str	r3, [r0, #16]
  49:Core/Src/usart.c ****   huart1.Init.Mode = UART_MODE_TX_RX;
  56              		.loc 1 49 3 is_stmt 1 view .LVU11
  57              		.loc 1 49 20 is_stmt 0 view .LVU12
  58 0016 0C22     		movs	r2, #12
  59 0018 4261     		str	r2, [r0, #20]
  50:Core/Src/usart.c ****   huart1.Init.HwFlowCtl = UART_HWCONTROL_NONE;
  60              		.loc 1 50 3 is_stmt 1 view .LVU13
  61              		.loc 1 50 25 is_stmt 0 view .LVU14
  62 001a 8361     		str	r3, [r0, #24]
  51:Core/Src/usart.c ****   huart1.Init.OverSampling = UART_OVERSAMPLING_16;
  63              		.loc 1 51 3 is_stmt 1 view .LVU15
  64              		.loc 1 51 28 is_stmt 0 view .LVU16
ARM GAS  /tmp/ccLVcmbR.s 			page 3


  65 001c C361     		str	r3, [r0, #28]
  52:Core/Src/usart.c ****   huart1.Init.OneBitSampling = UART_ONE_BIT_SAMPLE_DISABLE;
  66              		.loc 1 52 3 is_stmt 1 view .LVU17
  67              		.loc 1 52 30 is_stmt 0 view .LVU18
  68 001e 0362     		str	r3, [r0, #32]
  53:Core/Src/usart.c ****   huart1.Init.ClockPrescaler = UART_PRESCALER_DIV1;
  69              		.loc 1 53 3 is_stmt 1 view .LVU19
  70              		.loc 1 53 30 is_stmt 0 view .LVU20
  71 0020 4362     		str	r3, [r0, #36]
  54:Core/Src/usart.c ****   huart1.AdvancedInit.AdvFeatureInit = UART_ADVFEATURE_NO_INIT;
  72              		.loc 1 54 3 is_stmt 1 view .LVU21
  73              		.loc 1 54 38 is_stmt 0 view .LVU22
  74 0022 8362     		str	r3, [r0, #40]
  55:Core/Src/usart.c ****   if (HAL_UART_Init(&huart1) != HAL_OK)
  75              		.loc 1 55 3 is_stmt 1 view .LVU23
  76              		.loc 1 55 7 is_stmt 0 view .LVU24
  77 0024 FFF7FEFF 		bl	HAL_UART_Init
  78              	.LVL0:
  79              		.loc 1 55 6 discriminator 1 view .LVU25
  80 0028 70B9     		cbnz	r0, .L7
  81              	.L2:
  56:Core/Src/usart.c ****   {
  57:Core/Src/usart.c ****     Error_Handler();
  58:Core/Src/usart.c ****   }
  59:Core/Src/usart.c ****   if (HAL_UARTEx_SetTxFifoThreshold(&huart1, UART_TXFIFO_THRESHOLD_1_8) != HAL_OK)
  82              		.loc 1 59 3 is_stmt 1 view .LVU26
  83              		.loc 1 59 7 is_stmt 0 view .LVU27
  84 002a 0021     		movs	r1, #0
  85 002c 0C48     		ldr	r0, .L11
  86 002e FFF7FEFF 		bl	HAL_UARTEx_SetTxFifoThreshold
  87              	.LVL1:
  88              		.loc 1 59 6 discriminator 1 view .LVU28
  89 0032 60B9     		cbnz	r0, .L8
  90              	.L3:
  60:Core/Src/usart.c ****   {
  61:Core/Src/usart.c ****     Error_Handler();
  62:Core/Src/usart.c ****   }
  63:Core/Src/usart.c ****   if (HAL_UARTEx_SetRxFifoThreshold(&huart1, UART_RXFIFO_THRESHOLD_1_8) != HAL_OK)
  91              		.loc 1 63 3 is_stmt 1 view .LVU29
  92              		.loc 1 63 7 is_stmt 0 view .LVU30
  93 0034 0021     		movs	r1, #0
  94 0036 0A48     		ldr	r0, .L11
  95 0038 FFF7FEFF 		bl	HAL_UARTEx_SetRxFifoThreshold
  96              	.LVL2:
  97              		.loc 1 63 6 discriminator 1 view .LVU31
  98 003c 50B9     		cbnz	r0, .L9
  99              	.L4:
  64:Core/Src/usart.c ****   {
  65:Core/Src/usart.c ****     Error_Handler();
  66:Core/Src/usart.c ****   }
  67:Core/Src/usart.c ****   if (HAL_UARTEx_DisableFifoMode(&huart1) != HAL_OK)
 100              		.loc 1 67 3 is_stmt 1 view .LVU32
 101              		.loc 1 67 7 is_stmt 0 view .LVU33
 102 003e 0848     		ldr	r0, .L11
 103 0040 FFF7FEFF 		bl	HAL_UARTEx_DisableFifoMode
 104              	.LVL3:
 105              		.loc 1 67 6 discriminator 1 view .LVU34
ARM GAS  /tmp/ccLVcmbR.s 			page 4


 106 0044 48B9     		cbnz	r0, .L10
 107              	.L1:
  68:Core/Src/usart.c ****   {
  69:Core/Src/usart.c ****     Error_Handler();
  70:Core/Src/usart.c ****   }
  71:Core/Src/usart.c ****   /* USER CODE BEGIN USART1_Init 2 */
  72:Core/Src/usart.c **** 
  73:Core/Src/usart.c ****   /* USER CODE END USART1_Init 2 */
  74:Core/Src/usart.c **** 
  75:Core/Src/usart.c **** }
 108              		.loc 1 75 1 view .LVU35
 109 0046 08BD     		pop	{r3, pc}
 110              	.L7:
  57:Core/Src/usart.c ****   }
 111              		.loc 1 57 5 is_stmt 1 view .LVU36
 112 0048 FFF7FEFF 		bl	Error_Handler
 113              	.LVL4:
 114 004c EDE7     		b	.L2
 115              	.L8:
  61:Core/Src/usart.c ****   }
 116              		.loc 1 61 5 view .LVU37
 117 004e FFF7FEFF 		bl	Error_Handler
 118              	.LVL5:
 119 0052 EFE7     		b	.L3
 120              	.L9:
  65:Core/Src/usart.c ****   }
 121              		.loc 1 65 5 view .LVU38
 122 0054 FFF7FEFF 		bl	Error_Handler
 123              	.LVL6:
 124 0058 F1E7     		b	.L4
 125              	.L10:
  69:Core/Src/usart.c ****   }
 126              		.loc 1 69 5 view .LVU39
 127 005a FFF7FEFF 		bl	Error_Handler
 128              	.LVL7:
 129              		.loc 1 75 1 is_stmt 0 view .LVU40
 130 005e F2E7     		b	.L1
 131              	.L12:
 132              		.align	2
 133              	.L11:
 134 0060 00000000 		.word	huart1
 135 0064 00100140 		.word	1073811456
 136              		.cfi_endproc
 137              	.LFE147:
 139              		.section	.text.HAL_UART_MspInit,"ax",%progbits
 140              		.align	1
 141              		.global	HAL_UART_MspInit
 142              		.syntax unified
 143              		.thumb
 144              		.thumb_func
 146              	HAL_UART_MspInit:
 147              	.LVL8:
 148              	.LFB148:
  76:Core/Src/usart.c **** 
  77:Core/Src/usart.c **** void HAL_UART_MspInit(UART_HandleTypeDef* uartHandle)
  78:Core/Src/usart.c **** {
 149              		.loc 1 78 1 is_stmt 1 view -0
ARM GAS  /tmp/ccLVcmbR.s 			page 5


 150              		.cfi_startproc
 151              		@ args = 0, pretend = 0, frame = 224
 152              		@ frame_needed = 0, uses_anonymous_args = 0
 153              		.loc 1 78 1 is_stmt 0 view .LVU42
 154 0000 2DE9F041 		push	{r4, r5, r6, r7, r8, lr}
 155              	.LCFI1:
 156              		.cfi_def_cfa_offset 24
 157              		.cfi_offset 4, -24
 158              		.cfi_offset 5, -20
 159              		.cfi_offset 6, -16
 160              		.cfi_offset 7, -12
 161              		.cfi_offset 8, -8
 162              		.cfi_offset 14, -4
 163 0004 B8B0     		sub	sp, sp, #224
 164              	.LCFI2:
 165              		.cfi_def_cfa_offset 248
 166 0006 0446     		mov	r4, r0
  79:Core/Src/usart.c **** 
  80:Core/Src/usart.c ****   GPIO_InitTypeDef GPIO_InitStruct = {0};
 167              		.loc 1 80 3 is_stmt 1 view .LVU43
 168              		.loc 1 80 20 is_stmt 0 view .LVU44
 169 0008 0021     		movs	r1, #0
 170 000a 3391     		str	r1, [sp, #204]
 171 000c 3491     		str	r1, [sp, #208]
 172 000e 3591     		str	r1, [sp, #212]
 173 0010 3691     		str	r1, [sp, #216]
 174 0012 3791     		str	r1, [sp, #220]
  81:Core/Src/usart.c ****   RCC_PeriphCLKInitTypeDef PeriphClkInitStruct = {0};
 175              		.loc 1 81 3 is_stmt 1 view .LVU45
 176              		.loc 1 81 28 is_stmt 0 view .LVU46
 177 0014 C022     		movs	r2, #192
 178 0016 02A8     		add	r0, sp, #8
 179              	.LVL9:
 180              		.loc 1 81 28 view .LVU47
 181 0018 FFF7FEFF 		bl	memset
 182              	.LVL10:
  82:Core/Src/usart.c ****   if(uartHandle->Instance==USART1)
 183              		.loc 1 82 3 is_stmt 1 view .LVU48
 184              		.loc 1 82 16 is_stmt 0 view .LVU49
 185 001c 2268     		ldr	r2, [r4]
 186              		.loc 1 82 5 view .LVU50
 187 001e 254B     		ldr	r3, .L19
 188 0020 9A42     		cmp	r2, r3
 189 0022 02D0     		beq	.L17
 190              	.LVL11:
 191              	.L13:
  83:Core/Src/usart.c ****   {
  84:Core/Src/usart.c ****   /* USER CODE BEGIN USART1_MspInit 0 */
  85:Core/Src/usart.c **** 
  86:Core/Src/usart.c ****   /* USER CODE END USART1_MspInit 0 */
  87:Core/Src/usart.c **** 
  88:Core/Src/usart.c ****   /** Initializes the peripherals clock
  89:Core/Src/usart.c ****   */
  90:Core/Src/usart.c ****     PeriphClkInitStruct.PeriphClockSelection = RCC_PERIPHCLK_USART1;
  91:Core/Src/usart.c ****     PeriphClkInitStruct.Usart16ClockSelection = RCC_USART16910CLKSOURCE_D2PCLK2;
  92:Core/Src/usart.c ****     if (HAL_RCCEx_PeriphCLKConfig(&PeriphClkInitStruct) != HAL_OK)
  93:Core/Src/usart.c ****     {
ARM GAS  /tmp/ccLVcmbR.s 			page 6


  94:Core/Src/usart.c ****       Error_Handler();
  95:Core/Src/usart.c ****     }
  96:Core/Src/usart.c **** 
  97:Core/Src/usart.c ****     /* USART1 clock enable */
  98:Core/Src/usart.c ****     __HAL_RCC_USART1_CLK_ENABLE();
  99:Core/Src/usart.c **** 
 100:Core/Src/usart.c ****     __HAL_RCC_GPIOB_CLK_ENABLE();
 101:Core/Src/usart.c ****     /**USART1 GPIO Configuration
 102:Core/Src/usart.c ****     PB15     ------> USART1_RX
 103:Core/Src/usart.c ****     PB6     ------> USART1_TX
 104:Core/Src/usart.c ****     */
 105:Core/Src/usart.c ****     GPIO_InitStruct.Pin = GPIO_PIN_15;
 106:Core/Src/usart.c ****     GPIO_InitStruct.Mode = GPIO_MODE_AF_PP;
 107:Core/Src/usart.c ****     GPIO_InitStruct.Pull = GPIO_NOPULL;
 108:Core/Src/usart.c ****     GPIO_InitStruct.Speed = GPIO_SPEED_FREQ_VERY_HIGH;
 109:Core/Src/usart.c ****     GPIO_InitStruct.Alternate = GPIO_AF4_USART1;
 110:Core/Src/usart.c ****     HAL_GPIO_Init(GPIOB, &GPIO_InitStruct);
 111:Core/Src/usart.c **** 
 112:Core/Src/usart.c ****     GPIO_InitStruct.Pin = GPIO_PIN_6;
 113:Core/Src/usart.c ****     GPIO_InitStruct.Mode = GPIO_MODE_AF_PP;
 114:Core/Src/usart.c ****     GPIO_InitStruct.Pull = GPIO_NOPULL;
 115:Core/Src/usart.c ****     GPIO_InitStruct.Speed = GPIO_SPEED_FREQ_VERY_HIGH;
 116:Core/Src/usart.c ****     GPIO_InitStruct.Alternate = GPIO_AF7_USART1;
 117:Core/Src/usart.c ****     HAL_GPIO_Init(GPIOB, &GPIO_InitStruct);
 118:Core/Src/usart.c **** 
 119:Core/Src/usart.c ****   /* USER CODE BEGIN USART1_MspInit 1 */
 120:Core/Src/usart.c **** 
 121:Core/Src/usart.c ****   /* USER CODE END USART1_MspInit 1 */
 122:Core/Src/usart.c ****   }
 123:Core/Src/usart.c **** }
 192              		.loc 1 123 1 view .LVU51
 193 0024 38B0     		add	sp, sp, #224
 194              	.LCFI3:
 195              		.cfi_remember_state
 196              		.cfi_def_cfa_offset 24
 197              		@ sp needed
 198 0026 BDE8F081 		pop	{r4, r5, r6, r7, r8, pc}
 199              	.LVL12:
 200              	.L17:
 201              	.LCFI4:
 202              		.cfi_restore_state
  90:Core/Src/usart.c ****     PeriphClkInitStruct.Usart16ClockSelection = RCC_USART16910CLKSOURCE_D2PCLK2;
 203              		.loc 1 90 5 is_stmt 1 view .LVU52
  90:Core/Src/usart.c ****     PeriphClkInitStruct.Usart16ClockSelection = RCC_USART16910CLKSOURCE_D2PCLK2;
 204              		.loc 1 90 46 is_stmt 0 view .LVU53
 205 002a 0122     		movs	r2, #1
 206 002c 0023     		movs	r3, #0
 207 002e CDE90223 		strd	r2, [sp, #8]
  91:Core/Src/usart.c ****     if (HAL_RCCEx_PeriphCLKConfig(&PeriphClkInitStruct) != HAL_OK)
 208              		.loc 1 91 5 is_stmt 1 view .LVU54
  92:Core/Src/usart.c ****     {
 209              		.loc 1 92 5 view .LVU55
  92:Core/Src/usart.c ****     {
 210              		.loc 1 92 9 is_stmt 0 view .LVU56
 211 0032 02A8     		add	r0, sp, #8
 212 0034 FFF7FEFF 		bl	HAL_RCCEx_PeriphCLKConfig
 213              	.LVL13:
ARM GAS  /tmp/ccLVcmbR.s 			page 7


  92:Core/Src/usart.c ****     {
 214              		.loc 1 92 8 discriminator 1 view .LVU57
 215 0038 0028     		cmp	r0, #0
 216 003a 38D1     		bne	.L18
 217              	.L15:
  98:Core/Src/usart.c **** 
 218              		.loc 1 98 5 is_stmt 1 view .LVU58
 219              	.LBB2:
  98:Core/Src/usart.c **** 
 220              		.loc 1 98 5 view .LVU59
  98:Core/Src/usart.c **** 
 221              		.loc 1 98 5 view .LVU60
 222 003c 1E4B     		ldr	r3, .L19+4
 223 003e D3F85021 		ldr	r2, [r3, #336]
 224 0042 42F01002 		orr	r2, r2, #16
 225 0046 C3F85021 		str	r2, [r3, #336]
  98:Core/Src/usart.c **** 
 226              		.loc 1 98 5 view .LVU61
 227 004a D3F85021 		ldr	r2, [r3, #336]
 228 004e 02F01002 		and	r2, r2, #16
 229 0052 0092     		str	r2, [sp]
  98:Core/Src/usart.c **** 
 230              		.loc 1 98 5 view .LVU62
 231 0054 009A     		ldr	r2, [sp]
 232              	.LBE2:
  98:Core/Src/usart.c **** 
 233              		.loc 1 98 5 view .LVU63
 100:Core/Src/usart.c ****     /**USART1 GPIO Configuration
 234              		.loc 1 100 5 view .LVU64
 235              	.LBB3:
 100:Core/Src/usart.c ****     /**USART1 GPIO Configuration
 236              		.loc 1 100 5 view .LVU65
 100:Core/Src/usart.c ****     /**USART1 GPIO Configuration
 237              		.loc 1 100 5 view .LVU66
 238 0056 D3F84021 		ldr	r2, [r3, #320]
 239 005a 42F00202 		orr	r2, r2, #2
 240 005e C3F84021 		str	r2, [r3, #320]
 100:Core/Src/usart.c ****     /**USART1 GPIO Configuration
 241              		.loc 1 100 5 view .LVU67
 242 0062 D3F84031 		ldr	r3, [r3, #320]
 243 0066 03F00203 		and	r3, r3, #2
 244 006a 0193     		str	r3, [sp, #4]
 100:Core/Src/usart.c ****     /**USART1 GPIO Configuration
 245              		.loc 1 100 5 view .LVU68
 246 006c 019B     		ldr	r3, [sp, #4]
 247              	.LBE3:
 100:Core/Src/usart.c ****     /**USART1 GPIO Configuration
 248              		.loc 1 100 5 view .LVU69
 105:Core/Src/usart.c ****     GPIO_InitStruct.Mode = GPIO_MODE_AF_PP;
 249              		.loc 1 105 5 view .LVU70
 105:Core/Src/usart.c ****     GPIO_InitStruct.Mode = GPIO_MODE_AF_PP;
 250              		.loc 1 105 25 is_stmt 0 view .LVU71
 251 006e 4FF40043 		mov	r3, #32768
 252 0072 3393     		str	r3, [sp, #204]
 106:Core/Src/usart.c ****     GPIO_InitStruct.Pull = GPIO_NOPULL;
 253              		.loc 1 106 5 is_stmt 1 view .LVU72
 106:Core/Src/usart.c ****     GPIO_InitStruct.Pull = GPIO_NOPULL;
ARM GAS  /tmp/ccLVcmbR.s 			page 8


 254              		.loc 1 106 26 is_stmt 0 view .LVU73
 255 0074 4FF00208 		mov	r8, #2
 256 0078 CDF8D080 		str	r8, [sp, #208]
 107:Core/Src/usart.c ****     GPIO_InitStruct.Speed = GPIO_SPEED_FREQ_VERY_HIGH;
 257              		.loc 1 107 5 is_stmt 1 view .LVU74
 107:Core/Src/usart.c ****     GPIO_InitStruct.Speed = GPIO_SPEED_FREQ_VERY_HIGH;
 258              		.loc 1 107 26 is_stmt 0 view .LVU75
 259 007c 0027     		movs	r7, #0
 260 007e 3597     		str	r7, [sp, #212]
 108:Core/Src/usart.c ****     GPIO_InitStruct.Alternate = GPIO_AF4_USART1;
 261              		.loc 1 108 5 is_stmt 1 view .LVU76
 108:Core/Src/usart.c ****     GPIO_InitStruct.Alternate = GPIO_AF4_USART1;
 262              		.loc 1 108 27 is_stmt 0 view .LVU77
 263 0080 0326     		movs	r6, #3
 264 0082 3696     		str	r6, [sp, #216]
 109:Core/Src/usart.c ****     HAL_GPIO_Init(GPIOB, &GPIO_InitStruct);
 265              		.loc 1 109 5 is_stmt 1 view .LVU78
 109:Core/Src/usart.c ****     HAL_GPIO_Init(GPIOB, &GPIO_InitStruct);
 266              		.loc 1 109 31 is_stmt 0 view .LVU79
 267 0084 0423     		movs	r3, #4
 268 0086 3793     		str	r3, [sp, #220]
 110:Core/Src/usart.c **** 
 269              		.loc 1 110 5 is_stmt 1 view .LVU80
 270 0088 33AD     		add	r5, sp, #204
 271 008a 0C4C     		ldr	r4, .L19+8
 272              	.LVL14:
 110:Core/Src/usart.c **** 
 273              		.loc 1 110 5 is_stmt 0 view .LVU81
 274 008c 2946     		mov	r1, r5
 275 008e 2046     		mov	r0, r4
 276 0090 FFF7FEFF 		bl	HAL_GPIO_Init
 277              	.LVL15:
 112:Core/Src/usart.c ****     GPIO_InitStruct.Mode = GPIO_MODE_AF_PP;
 278              		.loc 1 112 5 is_stmt 1 view .LVU82
 112:Core/Src/usart.c ****     GPIO_InitStruct.Mode = GPIO_MODE_AF_PP;
 279              		.loc 1 112 25 is_stmt 0 view .LVU83
 280 0094 4023     		movs	r3, #64
 281 0096 3393     		str	r3, [sp, #204]
 113:Core/Src/usart.c ****     GPIO_InitStruct.Pull = GPIO_NOPULL;
 282              		.loc 1 113 5 is_stmt 1 view .LVU84
 113:Core/Src/usart.c ****     GPIO_InitStruct.Pull = GPIO_NOPULL;
 283              		.loc 1 113 26 is_stmt 0 view .LVU85
 284 0098 CDF8D080 		str	r8, [sp, #208]
 114:Core/Src/usart.c ****     GPIO_InitStruct.Speed = GPIO_SPEED_FREQ_VERY_HIGH;
 285              		.loc 1 114 5 is_stmt 1 view .LVU86
 114:Core/Src/usart.c ****     GPIO_InitStruct.Speed = GPIO_SPEED_FREQ_VERY_HIGH;
 286              		.loc 1 114 26 is_stmt 0 view .LVU87
 287 009c 3597     		str	r7, [sp, #212]
 115:Core/Src/usart.c ****     GPIO_InitStruct.Alternate = GPIO_AF7_USART1;
 288              		.loc 1 115 5 is_stmt 1 view .LVU88
 115:Core/Src/usart.c ****     GPIO_InitStruct.Alternate = GPIO_AF7_USART1;
 289              		.loc 1 115 27 is_stmt 0 view .LVU89
 290 009e 3696     		str	r6, [sp, #216]
 116:Core/Src/usart.c ****     HAL_GPIO_Init(GPIOB, &GPIO_InitStruct);
 291              		.loc 1 116 5 is_stmt 1 view .LVU90
 116:Core/Src/usart.c ****     HAL_GPIO_Init(GPIOB, &GPIO_InitStruct);
 292              		.loc 1 116 31 is_stmt 0 view .LVU91
ARM GAS  /tmp/ccLVcmbR.s 			page 9


 293 00a0 0723     		movs	r3, #7
 294 00a2 3793     		str	r3, [sp, #220]
 117:Core/Src/usart.c **** 
 295              		.loc 1 117 5 is_stmt 1 view .LVU92
 296 00a4 2946     		mov	r1, r5
 297 00a6 2046     		mov	r0, r4
 298 00a8 FFF7FEFF 		bl	HAL_GPIO_Init
 299              	.LVL16:
 300              		.loc 1 123 1 is_stmt 0 view .LVU93
 301 00ac BAE7     		b	.L13
 302              	.LVL17:
 303              	.L18:
  94:Core/Src/usart.c ****     }
 304              		.loc 1 94 7 is_stmt 1 view .LVU94
 305 00ae FFF7FEFF 		bl	Error_Handler
 306              	.LVL18:
 307 00b2 C3E7     		b	.L15
 308              	.L20:
 309              		.align	2
 310              	.L19:
 311 00b4 00100140 		.word	1073811456
 312 00b8 00440258 		.word	1476543488
 313 00bc 00040258 		.word	1476527104
 314              		.cfi_endproc
 315              	.LFE148:
 317              		.section	.text.HAL_UART_MspDeInit,"ax",%progbits
 318              		.align	1
 319              		.global	HAL_UART_MspDeInit
 320              		.syntax unified
 321              		.thumb
 322              		.thumb_func
 324              	HAL_UART_MspDeInit:
 325              	.LVL19:
 326              	.LFB149:
 124:Core/Src/usart.c **** 
 125:Core/Src/usart.c **** void HAL_UART_MspDeInit(UART_HandleTypeDef* uartHandle)
 126:Core/Src/usart.c **** {
 327              		.loc 1 126 1 view -0
 328              		.cfi_startproc
 329              		@ args = 0, pretend = 0, frame = 0
 330              		@ frame_needed = 0, uses_anonymous_args = 0
 331              		.loc 1 126 1 is_stmt 0 view .LVU96
 332 0000 08B5     		push	{r3, lr}
 333              	.LCFI5:
 334              		.cfi_def_cfa_offset 8
 335              		.cfi_offset 3, -8
 336              		.cfi_offset 14, -4
 127:Core/Src/usart.c **** 
 128:Core/Src/usart.c ****   if(uartHandle->Instance==USART1)
 337              		.loc 1 128 3 is_stmt 1 view .LVU97
 338              		.loc 1 128 16 is_stmt 0 view .LVU98
 339 0002 0268     		ldr	r2, [r0]
 340              		.loc 1 128 5 view .LVU99
 341 0004 084B     		ldr	r3, .L25
 342 0006 9A42     		cmp	r2, r3
 343 0008 00D0     		beq	.L24
 344              	.LVL20:
ARM GAS  /tmp/ccLVcmbR.s 			page 10


 345              	.L21:
 129:Core/Src/usart.c ****   {
 130:Core/Src/usart.c ****   /* USER CODE BEGIN USART1_MspDeInit 0 */
 131:Core/Src/usart.c **** 
 132:Core/Src/usart.c ****   /* USER CODE END USART1_MspDeInit 0 */
 133:Core/Src/usart.c ****     /* Peripheral clock disable */
 134:Core/Src/usart.c ****     __HAL_RCC_USART1_CLK_DISABLE();
 135:Core/Src/usart.c **** 
 136:Core/Src/usart.c ****     /**USART1 GPIO Configuration
 137:Core/Src/usart.c ****     PB15     ------> USART1_RX
 138:Core/Src/usart.c ****     PB6     ------> USART1_TX
 139:Core/Src/usart.c ****     */
 140:Core/Src/usart.c ****     HAL_GPIO_DeInit(GPIOB, GPIO_PIN_15|GPIO_PIN_6);
 141:Core/Src/usart.c **** 
 142:Core/Src/usart.c ****   /* USER CODE BEGIN USART1_MspDeInit 1 */
 143:Core/Src/usart.c **** 
 144:Core/Src/usart.c ****   /* USER CODE END USART1_MspDeInit 1 */
 145:Core/Src/usart.c ****   }
 146:Core/Src/usart.c **** }
 346              		.loc 1 146 1 view .LVU100
 347 000a 08BD     		pop	{r3, pc}
 348              	.LVL21:
 349              	.L24:
 134:Core/Src/usart.c **** 
 350              		.loc 1 134 5 is_stmt 1 view .LVU101
 351 000c 074A     		ldr	r2, .L25+4
 352 000e D2F85031 		ldr	r3, [r2, #336]
 353 0012 23F01003 		bic	r3, r3, #16
 354 0016 C2F85031 		str	r3, [r2, #336]
 140:Core/Src/usart.c **** 
 355              		.loc 1 140 5 view .LVU102
 356 001a 48F24001 		movw	r1, #32832
 357 001e 0448     		ldr	r0, .L25+8
 358              	.LVL22:
 140:Core/Src/usart.c **** 
 359              		.loc 1 140 5 is_stmt 0 view .LVU103
 360 0020 FFF7FEFF 		bl	HAL_GPIO_DeInit
 361              	.LVL23:
 362              		.loc 1 146 1 view .LVU104
 363 0024 F1E7     		b	.L21
 364              	.L26:
 365 0026 00BF     		.align	2
 366              	.L25:
 367 0028 00100140 		.word	1073811456
 368 002c 00440258 		.word	1476543488
 369 0030 00040258 		.word	1476527104
 370              		.cfi_endproc
 371              	.LFE149:
 373              		.section	.text.myprintf,"ax",%progbits
 374              		.align	1
 375              		.global	myprintf
 376              		.syntax unified
 377              		.thumb
 378              		.thumb_func
 380              	myprintf:
 381              	.LVL24:
 382              	.LFB150:
ARM GAS  /tmp/ccLVcmbR.s 			page 11


 147:Core/Src/usart.c **** 
 148:Core/Src/usart.c **** /* USER CODE BEGIN 1 */
 149:Core/Src/usart.c **** void myprintf(const char *fmt, ...)
 150:Core/Src/usart.c **** {
 383              		.loc 1 150 1 is_stmt 1 view -0
 384              		.cfi_startproc
 385              		@ args = 4, pretend = 16, frame = 8
 386              		@ frame_needed = 0, uses_anonymous_args = 1
 387              		.loc 1 150 1 is_stmt 0 view .LVU106
 388 0000 0FB4     		push	{r0, r1, r2, r3}
 389              	.LCFI6:
 390              		.cfi_def_cfa_offset 16
 391              		.cfi_offset 0, -16
 392              		.cfi_offset 1, -12
 393              		.cfi_offset 2, -8
 394              		.cfi_offset 3, -4
 395 0002 10B5     		push	{r4, lr}
 396              	.LCFI7:
 397              		.cfi_def_cfa_offset 24
 398              		.cfi_offset 4, -24
 399              		.cfi_offset 14, -20
 400 0004 82B0     		sub	sp, sp, #8
 401              	.LCFI8:
 402              		.cfi_def_cfa_offset 32
 403 0006 04AB     		add	r3, sp, #16
 404 0008 53F8042B 		ldr	r2, [r3], #4
 151:Core/Src/usart.c ****   static char buffer[256];
 405              		.loc 1 151 3 is_stmt 1 view .LVU107
 152:Core/Src/usart.c ****   va_list args;
 406              		.loc 1 152 3 view .LVU108
 153:Core/Src/usart.c ****   va_start(args, fmt);
 407              		.loc 1 153 3 view .LVU109
 408 000c 0193     		str	r3, [sp, #4]
 154:Core/Src/usart.c ****   vsnprintf(buffer, sizeof(buffer), fmt, args);
 409              		.loc 1 154 3 view .LVU110
 410 000e 0A4C     		ldr	r4, .L29
 411 0010 4FF48071 		mov	r1, #256
 412 0014 2046     		mov	r0, r4
 413 0016 FFF7FEFF 		bl	vsnprintf
 414              	.LVL25:
 155:Core/Src/usart.c ****   va_end(args);
 415              		.loc 1 155 3 view .LVU111
 156:Core/Src/usart.c **** 
 157:Core/Src/usart.c ****   int len = strlen(buffer);
 416              		.loc 1 157 3 view .LVU112
 417              		.loc 1 157 13 is_stmt 0 view .LVU113
 418 001a 2046     		mov	r0, r4
 419 001c FFF7FEFF 		bl	strlen
 420              	.LVL26:
 158:Core/Src/usart.c ****   HAL_UART_Transmit(&huart1, (uint8_t*)buffer, len, -1);
 421              		.loc 1 158 3 is_stmt 1 view .LVU114
 422 0020 4FF0FF33 		mov	r3, #-1
 423 0024 82B2     		uxth	r2, r0
 424 0026 2146     		mov	r1, r4
 425 0028 0448     		ldr	r0, .L29+4
 426              	.LVL27:
 427              		.loc 1 158 3 is_stmt 0 view .LVU115
ARM GAS  /tmp/ccLVcmbR.s 			page 12


 428 002a FFF7FEFF 		bl	HAL_UART_Transmit
 429              	.LVL28:
 159:Core/Src/usart.c **** }
 430              		.loc 1 159 1 view .LVU116
 431 002e 02B0     		add	sp, sp, #8
 432              	.LCFI9:
 433              		.cfi_def_cfa_offset 24
 434              		@ sp needed
 435 0030 BDE81040 		pop	{r4, lr}
 436              	.LCFI10:
 437              		.cfi_restore 14
 438              		.cfi_restore 4
 439              		.cfi_def_cfa_offset 16
 440 0034 04B0     		add	sp, sp, #16
 441              	.LCFI11:
 442              		.cfi_restore 3
 443              		.cfi_restore 2
 444              		.cfi_restore 1
 445              		.cfi_restore 0
 446              		.cfi_def_cfa_offset 0
 447 0036 7047     		bx	lr
 448              	.L30:
 449              		.align	2
 450              	.L29:
 451 0038 00000000 		.word	buffer.0
 452 003c 00000000 		.word	huart1
 453              		.cfi_endproc
 454              	.LFE150:
 456              		.section	.bss.buffer.0,"aw",%nobits
 457              		.align	2
 460              	buffer.0:
 461 0000 00000000 		.space	256
 461      00000000 
 461      00000000 
 461      00000000 
 461      00000000 
 462              		.global	huart1
 463              		.section	.bss.huart1,"aw",%nobits
 464              		.align	2
 467              	huart1:
 468 0000 00000000 		.space	148
 468      00000000 
 468      00000000 
 468      00000000 
 468      00000000 
 469              		.text
 470              	.Letext0:
 471              		.file 2 "/usr/arm-none-eabi/include/machine/_default_types.h"
 472              		.file 3 "/usr/arm-none-eabi/include/sys/_stdint.h"
 473              		.file 4 "Drivers/CMSIS/Device/ST/STM32H7xx/Include/stm32h7a3xxq.h"
 474              		.file 5 "/usr/lib/gcc/arm-none-eabi/14.2.1/include/stddef.h"
 475              		.file 6 "Drivers/STM32H7xx_HAL_Driver/Inc/stm32h7xx_hal_def.h"
 476              		.file 7 "Drivers/STM32H7xx_HAL_Driver/Inc/stm32h7xx_hal_rcc_ex.h"
 477              		.file 8 "Drivers/STM32H7xx_HAL_Driver/Inc/stm32h7xx_hal_gpio.h"
 478              		.file 9 "Drivers/STM32H7xx_HAL_Driver/Inc/stm32h7xx_hal_dma.h"
 479              		.file 10 "Drivers/STM32H7xx_HAL_Driver/Inc/stm32h7xx_hal_uart.h"
 480              		.file 11 "/usr/lib/gcc/arm-none-eabi/14.2.1/include/stdarg.h"
ARM GAS  /tmp/ccLVcmbR.s 			page 13


 481              		.file 12 "/usr/arm-none-eabi/include/stdio.h"
 482              		.file 13 "/usr/arm-none-eabi/include/string.h"
 483              		.file 14 "Drivers/STM32H7xx_HAL_Driver/Inc/stm32h7xx_hal_uart_ex.h"
 484              		.file 15 "<built-in>"
 485              		.file 16 "Core/Inc/usart.h"
 486              		.file 17 "Core/Inc/main.h"
ARM GAS  /tmp/ccLVcmbR.s 			page 14

